target datalayout = "e-m:e-p270:32:32-p271:32:32-p272:64:64-i64:64-i128:128-f80:128-n8:16:32:64-S128"
target triple = "x86_64-pc-linux-gnu"

%struct.PJconsts = type { ptr, ptr, ptr, ptr, ptr, ptr, ptr, ptr, ptr, ptr, ptr, ptr, i32, ptr, ptr, ptr, ptr, ptr, ptr, ptr, ptr, double, double, double, double, double, double, double, double, double, double, double, double, double, double, double, double, double, double, double, double, double, double, i32, i32, i32, i32, i32, i32, i32, i32, i32, i32, i32, ptr, ptr, ptr, ptr, ptr, ptr, double, double, double, double, double, double, double, double, double, double, double, i32, [7 x double], i32, ptr, ptr, double, double, i32, [4 x i8], %"class.std::shared_ptr", i8, double, i8, %"class.std::__cxx11::basic_string", %"class.std::__cxx11::basic_string", %"class.std::__cxx11::basic_string", i8, %"class.std::vector", i32, %"class.std::vector.3", i32, i8, i8, i8, ptr }
%"class.std::shared_ptr" = type { %"class.std::__shared_ptr" }
%"class.std::__shared_ptr" = type { ptr, %"class.std::__shared_count" }
%"class.std::__shared_count" = type { ptr }
%"class.std::__cxx11::basic_string" = type { %"struct.std::__cxx11::basic_string<char>::_Alloc_hider", i64, %union.anon }
%"struct.std::__cxx11::basic_string<char>::_Alloc_hider" = type { ptr }
%union.anon = type { i64, [8 x i8] }
%"class.std::vector" = type { %"struct.std::_Vector_base" }
%"struct.std::_Vector_base" = type { %"struct.std::_Vector_base<osgeo::proj::operation::GridDescription, std::allocator<osgeo::proj::operation::GridDescription>>::_Vector_impl" }
%"struct.std::_Vector_base<osgeo::proj::operation::GridDescription, std::allocator<osgeo::proj::operation::GridDescription>>::_Vector_impl" = type { %"struct.std::_Vector_base<osgeo::proj::operation::GridDescription, std::allocator<osgeo::proj::operation::GridDescription>>::_Vector_impl_data" }
%"struct.std::_Vector_base<osgeo::proj::operation::GridDescription, std::allocator<osgeo::proj::operation::GridDescription>>::_Vector_impl_data" = type { ptr, ptr, ptr }
%"class.std::vector.3" = type { %"struct.std::_Vector_base.4" }
%"struct.std::_Vector_base.4" = type { %"struct.std::_Vector_base<PJCoordOperation, std::allocator<PJCoordOperation>>::_Vector_impl" }
%"struct.std::_Vector_base<PJCoordOperation, std::allocator<PJCoordOperation>>::_Vector_impl" = type { %"struct.std::_Vector_base<PJCoordOperation, std::allocator<PJCoordOperation>>::_Vector_impl_data" }
%"struct.std::_Vector_base<PJCoordOperation, std::allocator<PJCoordOperation>>::_Vector_impl_data" = type { ptr, ptr, ptr }
%"struct.(anonymous namespace)::pj_moll_data" = type { double, double, double }
%struct.PJ_LP = type { double, double }
%struct.PJ_XY = type { double, double }

; Function Attrs: mustprogress uwtable
define internal { double, double } @_ZL14moll_s_inverse5PJ_XYP8PJconsts(double %0, double %1, ptr noundef %2) #0 {
  %4 = alloca %struct.PJ_LP, align 8
  %5 = alloca %struct.PJ_XY, align 8
  %6 = alloca ptr, align 8
  %7 = alloca ptr, align 8
  %8 = getelementptr inbounds nuw { double, double }, ptr %5, i32 0, i32 0
  store double %0, ptr %8, align 8
  %9 = getelementptr inbounds nuw { double, double }, ptr %5, i32 0, i32 1
  store double %1, ptr %9, align 8
  store ptr %2, ptr %6, align 8, !tbaa !3
  call void @llvm.memset.p0.i64(ptr align 8 %4, i8 0, i64 16, i1 false)
  call void @llvm.lifetime.start.p0(i64 8, ptr %7) #8
  %10 = load ptr, ptr %6, align 8, !tbaa !3
  %11 = getelementptr inbounds nuw %struct.PJconsts, ptr %10, i32 0, i32 11
  %12 = load ptr, ptr %11, align 8, !tbaa !43
  store ptr %12, ptr %7, align 8, !tbaa !41
  %13 = load ptr, ptr %6, align 8, !tbaa !3
  %14 = getelementptr inbounds nuw %struct.PJconsts, ptr %13, i32 0, i32 0
  %15 = load ptr, ptr %14, align 8, !tbaa !53
  %16 = getelementptr inbounds nuw %struct.PJ_XY, ptr %5, i32 0, i32 1
  %17 = load double, ptr %16, align 8, !tbaa !54
  %18 = load ptr, ptr %7, align 8, !tbaa !41
  %19 = getelementptr inbounds nuw %"struct.(anonymous namespace)::pj_moll_data", ptr %18, i32 0, i32 1
  %20 = load double, ptr %19, align 8, !tbaa !49
  %21 = fdiv double %17, %20
  %22 = call noundef double @_Z5aasinP6pj_ctxd(ptr noundef %15, double noundef %21)
  %23 = getelementptr inbounds nuw %struct.PJ_LP, ptr %4, i32 0, i32 1
  store double %22, ptr %23, align 8, !tbaa !56
  %24 = getelementptr inbounds nuw %struct.PJ_XY, ptr %5, i32 0, i32 0
  %25 = load double, ptr %24, align 8, !tbaa !58
  %26 = load ptr, ptr %7, align 8, !tbaa !41
  %27 = getelementptr inbounds nuw %"struct.(anonymous namespace)::pj_moll_data", ptr %26, i32 0, i32 0
  %28 = load double, ptr %27, align 8, !tbaa !47
  %29 = getelementptr inbounds nuw %struct.PJ_LP, ptr %4, i32 0, i32 1
  %30 = load double, ptr %29, align 8, !tbaa !56
  %31 = call double @cos(double noundef %30) #8, !tbaa !46
  %32 = fmul double %28, %31
  %33 = fdiv double %25, %32
  %34 = getelementptr inbounds nuw %struct.PJ_LP, ptr %4, i32 0, i32 0
  store double %33, ptr %34, align 8, !tbaa !59
  %35 = getelementptr inbounds nuw %struct.PJ_LP, ptr %4, i32 0, i32 0
  %36 = load double, ptr %35, align 8, !tbaa !59
  %37 = call double @llvm.fabs.f64(double %36)
  %38 = fcmp olt double %37, 0x400921FB54442D18
  br i1 %38, label %39, label %60

39:                                               ; preds = %3
  %40 = getelementptr inbounds nuw %struct.PJ_LP, ptr %4, i32 0, i32 1
  %41 = load double, ptr %40, align 8, !tbaa !56
  %42 = getelementptr inbounds nuw %struct.PJ_LP, ptr %4, i32 0, i32 1
  %43 = load double, ptr %42, align 8, !tbaa !56
  %44 = fadd double %43, %41
  store double %44, ptr %42, align 8, !tbaa !56
  %45 = load ptr, ptr %6, align 8, !tbaa !3
  %46 = getelementptr inbounds nuw %struct.PJconsts, ptr %45, i32 0, i32 0
  %47 = load ptr, ptr %46, align 8, !tbaa !53
  %48 = getelementptr inbounds nuw %struct.PJ_LP, ptr %4, i32 0, i32 1
  %49 = load double, ptr %48, align 8, !tbaa !56
  %50 = getelementptr inbounds nuw %struct.PJ_LP, ptr %4, i32 0, i32 1
  %51 = load double, ptr %50, align 8, !tbaa !56
  %52 = call double @sin(double noundef %51) #8, !tbaa !46
  %53 = fadd double %49, %52
  %54 = load ptr, ptr %7, align 8, !tbaa !41
  %55 = getelementptr inbounds nuw %"struct.(anonymous namespace)::pj_moll_data", ptr %54, i32 0, i32 2
  %56 = load double, ptr %55, align 8, !tbaa !50
  %57 = fdiv double %53, %56
  %58 = call noundef double @_Z5aasinP6pj_ctxd(ptr noundef %47, double noundef %57)
  %59 = getelementptr inbounds nuw %struct.PJ_LP, ptr %4, i32 0, i32 1
  store double %58, ptr %59, align 8, !tbaa !56
  br label %63

60:                                               ; preds = %3
  %61 = getelementptr inbounds nuw %struct.PJ_LP, ptr %4, i32 0, i32 1
  store double 0x7FF0000000000000, ptr %61, align 8, !tbaa !56
  %62 = getelementptr inbounds nuw %struct.PJ_LP, ptr %4, i32 0, i32 0
  store double 0x7FF0000000000000, ptr %62, align 8, !tbaa !59
  br label %63

63:                                               ; preds = %60, %39
  call void @llvm.lifetime.end.p0(i64 8, ptr %7) #8
  %64 = load { double, double }, ptr %4, align 8
  ret { double, double } %64
}