; Function Attrs: mustprogress uwtable
define internal { double, double } @_ZL14moll_s_inverse5PJ_XYP8PJconsts(double %0, double %1, ptr noundef readonly captures(none) %2) #0 {
  %4 = getelementptr inbounds nuw i8, ptr %2, i64 88
  %5 = load ptr, ptr %4, align 8, !tbaa !3
  %6 = load ptr, ptr %2, align 8, !tbaa !48
  %7 = getelementptr inbounds nuw i8, ptr %5, i64 8
  %8 = load double, ptr %7, align 8, !tbaa !39
  %9 = fdiv double %1, %8
  %10 = tail call noundef double @_Z5aasinP6pj_ctxd(ptr noundef %6, double noundef %9)
  %11 = load double, ptr %5, align 8, !tbaa !37
  %12 = tail call double @cos(double noundef %10) #7, !tbaa !49
  %13 = fmul double %11, %12
  %14 = fdiv double %0, %13
  %15 = tail call double @llvm.fabs.f64(double %14)
  %16 = fcmp olt double %15, 0x400921FB54442D18
  br i1 %16, label %17, label %26

17:                                               ; preds = %3
  %18 = fadd double %10, %10
  %19 = load ptr, ptr %2, align 8, !tbaa !48
  %20 = tail call double @sin(double noundef %18) #7, !tbaa !49
  %21 = fadd double %18, %20
  %22 = getelementptr inbounds nuw i8, ptr %5, i64 16
  %23 = load double, ptr %22, align 8, !tbaa !40
  %24 = fdiv double %21, %23
  %25 = tail call noundef double @_Z5aasinP6pj_ctxd(ptr noundef %19, double noundef %24)
  br label %26

26:                                               ; preds = %3, %17
  %.sroa.5.0 = phi double [ %25, %17 ], [ 0x7FF0000000000000, %3 ]
  %.sroa.06.0 = phi double [ %14, %17 ], [ 0x7FF0000000000000, %3 ]
  %.fca.0.insert = insertvalue { double, double } poison, double %.sroa.06.0, 0
  %.fca.1.insert = insertvalue { double, double } %.fca.0.insert, double %.sroa.5.0, 1
  ret { double, double } %.fca.1.insert
}